; Function Attrs: uwtable
define hidden void @_ZThn48_N2bv6solver16apply_sort_cnstrEPN3euf5enodeEP4sort(ptr noundef %0, ptr noundef %1, ptr readnone captures(none) %2) unnamed_addr #7 align 2 {
  %4 = getelementptr inbounds i8, ptr %0, i64 -48
  %5 = getelementptr inbounds nuw i8, ptr %0, i64 56
  %6 = load i32, ptr %5, align 8, !tbaa !73
  %.not1.i.i = icmp eq i32 %6, 0
  br i1 %.not1.i.i, label %_ZN3euf13th_euf_solver10force_pushEv.exit.i, label %.lr.ph.i.i

.lr.ph.i.i:                                       ; preds = %3, %.lr.ph.i.i
  %7 = load ptr, ptr %4, align 8, !tbaa !42
  %8 = getelementptr inbounds nuw i8, ptr %7, i64 512
  %9 = load ptr, ptr %8, align 8
  tail call void %9(ptr noundef nonnull align 8 dereferenceable(640) %4)
  %10 = load i32, ptr %5, align 8, !tbaa !73
  %11 = add i32 %10, -1
  store i32 %11, ptr %5, align 8, !tbaa !73
  %.not.i.i = icmp eq i32 %11, 0
  br i1 %.not.i.i, label %_ZN3euf13th_euf_solver10force_pushEv.exit.i, label %.lr.ph.i.i, !llvm.loop !74

_ZN3euf13th_euf_solver10force_pushEv.exit.i:      ; preds = %.lr.ph.i.i, %3
  %12 = getelementptr inbounds i8, ptr %0, i64 -36
  %13 = load i32, ptr %12, align 4, !tbaa !65
  %14 = getelementptr inbounds nuw i8, ptr %1, i64 88
  %15 = load i32, ptr %14, align 8
  %16 = icmp ugt i32 %15, -257
  br i1 %16, label %_ZNK3euf5enode10get_th_varEi.exit.thread.i.i, label %.preheader.i.i.i.i.preheader

.preheader.i.i.i.i.preheader:                     ; preds = %_ZN3euf13th_euf_solver10force_pushEv.exit.i
  %17 = shl i32 %15, 24
  %18 = ashr exact i32 %17, 24
  %19 = icmp eq i32 %13, %18
  br i1 %19, label %_ZN2bv6solver16apply_sort_cnstrEPN3euf5enodeEP4sort.exit, label %.lr.ph

.preheader.i.i.ithread-pre-split.i:               ; preds = %.lr.ph
  %.pr.i = load i32, ptr %24, align 8
  %20 = shl i32 %.pr.i, 24
  %21 = ashr exact i32 %20, 24
  %22 = icmp eq i32 %13, %21
  br i1 %22, label %_ZNK3euf5enode10get_th_varEi.exit.i.i, label %.lr.ph

.lr.ph:                                           ; preds = %.preheader.i.i.i.i.preheader, %.preheader.i.i.ithread-pre-split.i
  %.0.i.i.i.i4 = phi ptr [ %24, %.preheader.i.i.ithread-pre-split.i ], [ %14, %.preheader.i.i.i.i.preheader ]
  %23 = getelementptr inbounds nuw i8, ptr %.0.i.i.i.i4, i64 8
  %24 = load ptr, ptr %23, align 8, !tbaa !76
  %.not.i.i.i.i = icmp eq ptr %24, null
  br i1 %.not.i.i.i.i, label %_ZNK3euf5enode10get_th_varEi.exit.thread.i.i, label %.preheader.i.i.ithread-pre-split.i, !llvm.loop !79

_ZNK3euf5enode10get_th_varEi.exit.i.i:            ; preds = %.preheader.i.i.ithread-pre-split.i
  %25 = icmp ugt i32 %.pr.i, -257
  br i1 %25, label %_ZNK3euf5enode10get_th_varEi.exit.thread.i.i, label %_ZN2bv6solver16apply_sort_cnstrEPN3euf5enodeEP4sort.exit

_ZNK3euf5enode10get_th_varEi.exit.thread.i.i:     ; preds = %.lr.ph, %_ZNK3euf5enode10get_th_varEi.exit.i.i, %_ZN3euf13th_euf_solver10force_pushEv.exit.i
  %26 = load ptr, ptr %4, align 8, !tbaa !42
  %27 = getelementptr inbounds nuw i8, ptr %26, i64 528
  %28 = load ptr, ptr %27, align 8
  %29 = tail call noundef i32 %28(ptr noundef nonnull align 8 dereferenceable(640) %4, ptr noundef nonnull %1)
  %30 = getelementptr inbounds nuw i8, ptr %0, i64 80
  %31 = load ptr, ptr %1, align 8, !tbaa !80
  %32 = tail call noundef ptr @_ZNK4expr8get_sortEv(ptr noundef nonnull align 4 dereferenceable(16) %31)
  %33 = tail call noundef zeroext i1 @_ZNK14bv_recognizers10is_bv_sortEPK4sort(ptr noundef nonnull align 4 dereferenceable(4) %30, ptr noundef %32)
  br i1 %33, label %34, label %_ZN2bv6solver16apply_sort_cnstrEPN3euf5enodeEP4sort.exit

34:                                               ; preds = %_ZNK3euf5enode10get_th_varEi.exit.thread.i.i
  tail call void @_ZN2bv6solver7mk_bitsEi(ptr noundef nonnull align 8 dereferenceable(640) %4, i32 noundef %29)
  br label %_ZN2bv6solver16apply_sort_cnstrEPN3euf5enodeEP4sort.exit

_ZN2bv6solver16apply_sort_cnstrEPN3euf5enodeEP4sort.exit: ; preds = %.preheader.i.i.i.i.preheader, %_ZNK3euf5enode10get_th_varEi.exit.i.i, %_ZNK3euf5enode10get_th_varEi.exit.thread.i.i, %34
  ret void
}